; Function Attrs: mustprogress uwtable
define void @_ZN7rocksdb24PessimisticTransactionDB16DropColumnFamilyEPNS_18ColumnFamilyHandleE(ptr dead_on_unwind noalias writable sret(%"class.rocksdb::Status") align 8 %0, ptr noundef nonnull align 8 dereferenceable(520) %1, ptr noundef %2) unnamed_addr #4 align 2 personality ptr @__gxx_personality_v0 {
  %4 = getelementptr inbounds nuw i8, ptr %1, i64 264
  tail call void @_ZN7rocksdb17InstrumentedMutex4LockEv(ptr noundef nonnull align 8 dereferenceable(60) %4)
  %5 = getelementptr inbounds nuw i8, ptr %1, i64 8
  %6 = load ptr, ptr %5, align 8, !tbaa !18
  %7 = load ptr, ptr %6, align 8, !tbaa !26
  %8 = getelementptr inbounds nuw i8, ptr %7, i64 56
  %9 = load ptr, ptr %8, align 8
  invoke void %9(ptr dead_on_unwind writable sret(%"class.rocksdb::Status") align 8 %0, ptr noundef nonnull align 8 dereferenceable(8) %6, ptr noundef %2)
          to label %10 unwind label %19

10:                                               ; preds = %3
  %11 = load i8, ptr %0, align 8, !tbaa !220
  %12 = icmp eq i8 %11, 0
  br i1 %12, label %13, label %25

13:                                               ; preds = %10
  %14 = getelementptr inbounds nuw i8, ptr %1, i64 248
  %15 = load ptr, ptr %14, align 8, !tbaa !219
  %16 = load ptr, ptr %15, align 8, !tbaa !26
  %17 = getelementptr inbounds nuw i8, ptr %16, i64 48
  %18 = load ptr, ptr %17, align 8
  invoke void %18(ptr noundef nonnull align 8 dereferenceable(8) %15, ptr noundef %2)
          to label %25 unwind label %21

19:                                               ; preds = %3
  %20 = landingpad { ptr, i32 }
          cleanup
  br label %29

21:                                               ; preds = %13
  %22 = landingpad { ptr, i32 }
          cleanup
  %23 = getelementptr inbounds nuw i8, ptr %0, i64 8
  %24 = load ptr, ptr %23, align 8, !tbaa !230
  %.not.i.i = icmp eq ptr %24, null
  br i1 %.not.i.i, label %_ZN7rocksdb6StatusD2Ev.exit, label %_ZNKSt14default_deleteIA_KcEclIS0_EENSt9enable_ifIXsr14is_convertibleIPA_T_PS1_EE5valueEvE4typeEPS5_.exit.i.i

_ZNKSt14default_deleteIA_KcEclIS0_EENSt9enable_ifIXsr14is_convertibleIPA_T_PS1_EE5valueEvE4typeEPS5_.exit.i.i: ; preds = %21
  tail call void @_ZdaPv(ptr noundef nonnull %24) #27
  br label %_ZN7rocksdb6StatusD2Ev.exit

_ZN7rocksdb6StatusD2Ev.exit:                      ; preds = %21, %_ZNKSt14default_deleteIA_KcEclIS0_EENSt9enable_ifIXsr14is_convertibleIPA_T_PS1_EE5valueEvE4typeEPS5_.exit.i.i
  store ptr null, ptr %23, align 8, !tbaa !230
  br label %29

25:                                               ; preds = %10, %13
  invoke void @_ZN7rocksdb4port5Mutex6UnlockEv(ptr noundef nonnull align 8 dereferenceable(60) %4)
          to label %_ZN7rocksdb21InstrumentedMutexLockD2Ev.exit unwind label %26

26:                                               ; preds = %25
  %27 = landingpad { ptr, i32 }
          catch ptr null
  %28 = extractvalue { ptr, i32 } %27, 0
  tail call void @__clang_call_terminate(ptr %28) #29
  unreachable

_ZN7rocksdb21InstrumentedMutexLockD2Ev.exit:      ; preds = %25
  ret void

29:                                               ; preds = %_ZN7rocksdb6StatusD2Ev.exit, %19
  %.pn = phi { ptr, i32 } [ %22, %_ZN7rocksdb6StatusD2Ev.exit ], [ %20, %19 ]
  invoke void @_ZN7rocksdb4port5Mutex6UnlockEv(ptr noundef nonnull align 8 dereferenceable(60) %4)
          to label %_ZN7rocksdb21InstrumentedMutexLockD2Ev.exit7 unwind label %30

30:                                               ; preds = %29
  %31 = landingpad { ptr, i32 }
          catch ptr null
  %32 = extractvalue { ptr, i32 } %31, 0
  tail call void @__clang_call_terminate(ptr %32) #29
  unreachable

_ZN7rocksdb21InstrumentedMutexLockD2Ev.exit7:     ; preds = %29
  resume { ptr, i32 } %.pn
}